target datalayout = "e-m:e-p270:32:32-p271:32:32-p272:64:64-i64:64-i128:128-f80:128-n8:16:32:64-S128"
target triple = "x86_64-pc-linux-gnu"

%"class.icu_77::MaybeStackArray" = type <{ ptr, i32, i8, [40 x i8], [3 x i8] }>
%"class.icu_77::StringPiece" = type <{ ptr, i32, [4 x i8] }>
%"class.icu_77::BytesTrieElement" = type { i32, i32 }
%"class.icu_77::CharString" = type { %"class.icu_77::MaybeStackArray", i32, [4 x i8] }

; Function Attrs: mustprogress nounwind uwtable
define weak_odr noundef ptr @_ZNK6icu_7715MaybeStackArrayIcLi40EE8getAliasEv(ptr noundef nonnull align 8 dereferenceable(53) %0) #0 comdat align 2 {
  %2 = alloca ptr, align 8
  store ptr %0, ptr %2, align 8, !tbaa !3
  %3 = load ptr, ptr %2, align 8
  %4 = getelementptr inbounds nuw %"class.icu_77::MaybeStackArray", ptr %3, i32 0, i32 0
  %5 = load ptr, ptr %4, align 8, !tbaa !8
  ret ptr %5
}

; Function Attrs: mustprogress nounwind uwtable
define weak_odr noundef nonnull align 1 dereferenceable(1) ptr @_ZNK6icu_7715MaybeStackArrayIcLi40EEixEl(ptr noundef nonnull align 8 dereferenceable(53) %0, i64 noundef %1) #0 comdat align 2 {
  %3 = alloca ptr, align 8
  %4 = alloca i64, align 8
  store ptr %0, ptr %3, align 8, !tbaa !3
  store i64 %1, ptr %4, align 8, !tbaa !18
  %5 = load ptr, ptr %3, align 8
  %6 = getelementptr inbounds nuw %"class.icu_77::MaybeStackArray", ptr %5, i32 0, i32 0
  %7 = load ptr, ptr %6, align 8, !tbaa !8
  %8 = load i64, ptr %4, align 8, !tbaa !18
  %9 = getelementptr inbounds i8, ptr %7, i64 %8
  ret ptr %9
}

; Function Attrs: mustprogress nounwind uwtable
define linkonce_odr void @_ZN6icu_7711StringPieceC2EPKci(ptr noundef nonnull align 8 dereferenceable(12) %0, ptr noundef %1, i32 noundef %2) unnamed_addr #0 comdat align 2 {
  %4 = alloca ptr, align 8
  %5 = alloca ptr, align 8
  %6 = alloca i32, align 4
  store ptr %0, ptr %4, align 8, !tbaa !30
  store ptr %1, ptr %5, align 8, !tbaa !17
  store i32 %2, ptr %6, align 4, !tbaa !14
  %7 = load ptr, ptr %4, align 8
  %8 = getelementptr inbounds nuw %"class.icu_77::StringPiece", ptr %7, i32 0, i32 0
  %9 = load ptr, ptr %5, align 8, !tbaa !17
  store ptr %9, ptr %8, align 8, !tbaa !36
  %10 = getelementptr inbounds nuw %"class.icu_77::StringPiece", ptr %7, i32 0, i32 1
  %11 = load i32, ptr %6, align 4, !tbaa !14
  store i32 %11, ptr %10, align 8, !tbaa !32
  ret void
}

; Function Attrs: mustprogress nounwind uwtable
define linkonce_odr noundef ptr @_ZNK6icu_7710CharString4dataEv(ptr noundef nonnull align 8 dereferenceable(60) %0) #0 comdat align 2 {
  %2 = alloca ptr, align 8
  store ptr %0, ptr %2, align 8, !tbaa !25
  %3 = load ptr, ptr %2, align 8
  %4 = getelementptr inbounds nuw %"class.icu_77::CharString", ptr %3, i32 0, i32 0
  %5 = call noundef ptr @_ZNK6icu_7715MaybeStackArrayIcLi40EE8getAliasEv(ptr noundef nonnull align 8 dereferenceable(53) %4)
  ret ptr %5
}

; Function Attrs: mustprogress nounwind uwtable
define linkonce_odr noundef signext i8 @_ZNK6icu_7710CharStringixEi(ptr noundef nonnull align 8 dereferenceable(60) %0, i32 noundef %1) #0 comdat align 2 {
  %3 = alloca ptr, align 8
  %4 = alloca i32, align 4
  store ptr %0, ptr %3, align 8, !tbaa !25
  store i32 %1, ptr %4, align 4, !tbaa !14
  %5 = load ptr, ptr %3, align 8
  %6 = getelementptr inbounds nuw %"class.icu_77::CharString", ptr %5, i32 0, i32 0
  %7 = load i32, ptr %4, align 4, !tbaa !14
  %8 = sext i32 %7 to i64
  %9 = call noundef nonnull align 1 dereferenceable(1) ptr @_ZNK6icu_7715MaybeStackArrayIcLi40EEixEl(ptr noundef nonnull align 8 dereferenceable(53) %6, i64 noundef %8)
  %10 = load i8, ptr %9, align 1, !tbaa !52
  ret i8 %10
}

; Function Attrs: mustprogress nounwind uwtable
define linkonce_odr noundef ptr @_ZNK6icu_7711StringPiece4dataEv(ptr noundef nonnull align 8 dereferenceable(12) %0) #0 comdat align 2 {
  %2 = alloca ptr, align 8
  store ptr %0, ptr %2, align 8, !tbaa !30
  %3 = load ptr, ptr %2, align 8
  %4 = getelementptr inbounds nuw %"class.icu_77::StringPiece", ptr %3, i32 0, i32 0
  %5 = load ptr, ptr %4, align 8, !tbaa !36
  ret ptr %5
}

; Function Attrs: mustprogress nounwind uwtable
define linkonce_odr noundef i32 @_ZNK6icu_7711StringPiece6lengthEv(ptr noundef nonnull align 8 dereferenceable(12) %0) #0 comdat align 2 {
  %2 = alloca ptr, align 8
  store ptr %0, ptr %2, align 8, !tbaa !30
  %3 = load ptr, ptr %2, align 8
  %4 = getelementptr inbounds nuw %"class.icu_77::StringPiece", ptr %3, i32 0, i32 1
  %5 = load i32, ptr %4, align 8, !tbaa !32
  ret i32 %5
}

; Function Attrs: mustprogress uwtable
define linkonce_odr { ptr, i32 } @_ZNK6icu_7716BytesTrieElement9getStringERKNS_10CharStringE(ptr noundef nonnull align 4 dereferenceable(8) %0, ptr noundef nonnull align 8 dereferenceable(60) %1) #1 comdat align 2 {
  %3 = alloca %"class.icu_77::StringPiece", align 8
  %4 = alloca ptr, align 8
  %5 = alloca ptr, align 8
  %6 = alloca i32, align 4
  %7 = alloca i32, align 4
  store ptr %0, ptr %4, align 8, !tbaa !23
  store ptr %1, ptr %5, align 8, !tbaa !25
  %8 = load ptr, ptr %4, align 8
  call void @llvm.lifetime.start.p0(i64 4, ptr %6) #12
  %9 = getelementptr inbounds nuw %"class.icu_77::BytesTrieElement", ptr %8, i32 0, i32 0
  %10 = load i32, ptr %9, align 4, !tbaa !27
  store i32 %10, ptr %6, align 4, !tbaa !14
  call void @llvm.lifetime.start.p0(i64 4, ptr %7) #12
  %11 = load i32, ptr %6, align 4, !tbaa !14
  %12 = icmp sge i32 %11, 0
  br i1 %12, label %13, label %19

13:                                               ; preds = %2
  %14 = load ptr, ptr %5, align 8, !tbaa !25
  %15 = load i32, ptr %6, align 4, !tbaa !14
  %16 = add nsw i32 %15, 1
  store i32 %16, ptr %6, align 4, !tbaa !14
  %17 = call noundef signext i8 @_ZNK6icu_7710CharStringixEi(ptr noundef nonnull align 8 dereferenceable(60) %14, i32 noundef %15)
  %18 = zext i8 %17 to i32
  store i32 %18, ptr %7, align 4, !tbaa !14
  br label %35

19:                                               ; preds = %2
  %20 = load i32, ptr %6, align 4, !tbaa !14
  %21 = xor i32 %20, -1
  store i32 %21, ptr %6, align 4, !tbaa !14
  %22 = load ptr, ptr %5, align 8, !tbaa !25
  %23 = load i32, ptr %6, align 4, !tbaa !14
  %24 = call noundef signext i8 @_ZNK6icu_7710CharStringixEi(ptr noundef nonnull align 8 dereferenceable(60) %22, i32 noundef %23)
  %25 = zext i8 %24 to i32
  %26 = shl i32 %25, 8
  %27 = load ptr, ptr %5, align 8, !tbaa !25
  %28 = load i32, ptr %6, align 4, !tbaa !14
  %29 = add nsw i32 %28, 1
  %30 = call noundef signext i8 @_ZNK6icu_7710CharStringixEi(ptr noundef nonnull align 8 dereferenceable(60) %27, i32 noundef %29)
  %31 = zext i8 %30 to i32
  %32 = or i32 %26, %31
  store i32 %32, ptr %7, align 4, !tbaa !14
  %33 = load i32, ptr %6, align 4, !tbaa !14
  %34 = add nsw i32 %33, 2
  store i32 %34, ptr %6, align 4, !tbaa !14
  br label %35

35:                                               ; preds = %19, %13
  %36 = load ptr, ptr %5, align 8, !tbaa !25
  %37 = call noundef ptr @_ZNK6icu_7710CharString4dataEv(ptr noundef nonnull align 8 dereferenceable(60) %36)
  %38 = load i32, ptr %6, align 4, !tbaa !14
  %39 = sext i32 %38 to i64
  %40 = getelementptr inbounds i8, ptr %37, i64 %39
  %41 = load i32, ptr %7, align 4, !tbaa !14
  call void @_ZN6icu_7711StringPieceC2EPKci(ptr noundef nonnull align 8 dereferenceable(12) %3, ptr noundef %40, i32 noundef %41)
  call void @llvm.lifetime.end.p0(i64 4, ptr %7) #12
  call void @llvm.lifetime.end.p0(i64 4, ptr %6) #12
  %42 = load { ptr, i32 }, ptr %3, align 8
  ret { ptr, i32 } %42
}

; Function Attrs: mustprogress uwtable
define noundef i32 @_ZNK6icu_7716BytesTrieElement15compareStringToERKS0_RKNS_10CharStringE(ptr noundef nonnull align 4 dereferenceable(8) %0, ptr noundef nonnull align 4 dereferenceable(8) %1, ptr noundef nonnull align 8 dereferenceable(60) %2) #1 align 2 {
  %4 = alloca ptr, align 8
  %5 = alloca ptr, align 8
  %6 = alloca ptr, align 8
  %7 = alloca %"class.icu_77::StringPiece", align 8
  %8 = alloca { ptr, i32 }, align 8
  %9 = alloca %"class.icu_77::StringPiece", align 8
  %10 = alloca { ptr, i32 }, align 8
  %11 = alloca i32, align 4
  %12 = alloca i32, align 4
  %13 = alloca i32, align 4
  store ptr %0, ptr %4, align 8, !tbaa !23
  store ptr %1, ptr %5, align 8, !tbaa !23
  store ptr %2, ptr %6, align 8, !tbaa !25
  %14 = load ptr, ptr %4, align 8
  call void @llvm.lifetime.start.p0(i64 16, ptr %7) #12
  %15 = load ptr, ptr %6, align 8, !tbaa !25
  %16 = call { ptr, i32 } @_ZNK6icu_7716BytesTrieElement9getStringERKNS_10CharStringE(ptr noundef nonnull align 4 dereferenceable(8) %14, ptr noundef nonnull align 8 dereferenceable(60) %15)
  store { ptr, i32 } %16, ptr %8, align 8
  call void @llvm.memcpy.p0.p0.i64(ptr align 8 %7, ptr align 8 %8, i64 12, i1 false)
  call void @llvm.lifetime.start.p0(i64 16, ptr %9) #12
  %17 = load ptr, ptr %5, align 8, !tbaa !23
  %18 = load ptr, ptr %6, align 8, !tbaa !25
  %19 = call { ptr, i32 } @_ZNK6icu_7716BytesTrieElement9getStringERKNS_10CharStringE(ptr noundef nonnull align 4 dereferenceable(8) %17, ptr noundef nonnull align 8 dereferenceable(60) %18)
  store { ptr, i32 } %19, ptr %10, align 8
  call void @llvm.memcpy.p0.p0.i64(ptr align 8 %9, ptr align 8 %10, i64 12, i1 false)
  call void @llvm.lifetime.start.p0(i64 4, ptr %11) #12
  %20 = call noundef i32 @_ZNK6icu_7711StringPiece6lengthEv(ptr noundef nonnull align 8 dereferenceable(12) %7)
  %21 = call noundef i32 @_ZNK6icu_7711StringPiece6lengthEv(ptr noundef nonnull align 8 dereferenceable(12) %9)
  %22 = sub nsw i32 %20, %21
  store i32 %22, ptr %11, align 4, !tbaa !14
  call void @llvm.lifetime.start.p0(i64 4, ptr %12) #12
  %23 = load i32, ptr %11, align 4, !tbaa !14
  %24 = icmp sle i32 %23, 0
  br i1 %24, label %25, label %27

25:                                               ; preds = %3
  %26 = call noundef i32 @_ZNK6icu_7711StringPiece6lengthEv(ptr noundef nonnull align 8 dereferenceable(12) %7)
  store i32 %26, ptr %12, align 4, !tbaa !14
  br label %29

27:                                               ; preds = %3
  %28 = call noundef i32 @_ZNK6icu_7711StringPiece6lengthEv(ptr noundef nonnull align 8 dereferenceable(12) %9)
  store i32 %28, ptr %12, align 4, !tbaa !14
  br label %29

29:                                               ; preds = %27, %25
  call void @llvm.lifetime.start.p0(i64 4, ptr %13) #12
  %30 = call noundef ptr @_ZNK6icu_7711StringPiece4dataEv(ptr noundef nonnull align 8 dereferenceable(12) %7)
  %31 = call noundef ptr @_ZNK6icu_7711StringPiece4dataEv(ptr noundef nonnull align 8 dereferenceable(12) %9)
  %32 = load i32, ptr %12, align 4, !tbaa !14
  %33 = sext i32 %32 to i64
  %34 = call i32 @memcmp(ptr noundef %30, ptr noundef %31, i64 noundef %33) #15
  store i32 %34, ptr %13, align 4, !tbaa !14
  %35 = load i32, ptr %13, align 4, !tbaa !14
  %36 = icmp ne i32 %35, 0
  br i1 %36, label %37, label %39

37:                                               ; preds = %29
  %38 = load i32, ptr %13, align 4, !tbaa !14
  br label %41

39:                                               ; preds = %29
  %40 = load i32, ptr %11, align 4, !tbaa !14
  br label %41

41:                                               ; preds = %39, %37
  %42 = phi i32 [ %38, %37 ], [ %40, %39 ]
  call void @llvm.lifetime.end.p0(i64 4, ptr %13) #12
  call void @llvm.lifetime.end.p0(i64 4, ptr %12) #12
  call void @llvm.lifetime.end.p0(i64 4, ptr %11) #12
  call void @llvm.lifetime.end.p0(i64 16, ptr %9) #12
  call void @llvm.lifetime.end.p0(i64 16, ptr %7) #12
  ret i32 %42
}